; Function Attrs: mustprogress nounwind uwtable
define dso_local noundef i32 @_ZN4node4quic13SessionTicket16GenerateCallbackEP6ssl_stPv(ptr noundef %ssl, ptr nocapture noundef readnone %arg) local_unnamed_addr #4 align 2 {
entry:
  %app_data.i = alloca %"class.node::quic::SessionTicket::AppData", align 8
  call void @llvm.lifetime.start.p0(i64 16, ptr nonnull %app_data.i)
  %call.i.i = tail call ptr @SSL_get_ex_data(ptr noundef %ssl, i32 noundef 0) #17
  %cmp.not.i.i = icmp eq ptr %call.i.i, null
  br i1 %cmp.not.i.i, label %_ZN4node4quic13SessionTicket7AppData7CollectEP6ssl_st.exit, label %land.lhs.true.i.i

land.lhs.true.i.i:                                ; preds = %entry
  %user_data.i.i = getelementptr inbounds i8, ptr %call.i.i, i64 8
  %0 = load ptr, ptr %user_data.i.i, align 8
  %cmp1.not.i.i = icmp eq ptr %0, null
  br i1 %cmp1.not.i.i, label %_ZN4node4quic13SessionTicket7AppData7CollectEP6ssl_st.exit, label %if.then.i

if.then.i:                                        ; preds = %land.lhs.true.i.i
  store i8 0, ptr %app_data.i, align 8
  %ssl_.i.i = getelementptr inbounds i8, ptr %app_data.i, i64 8
  store ptr %ssl, ptr %ssl_.i.i, align 8
  %vtable.i = load ptr, ptr %0, align 8
  %1 = load ptr, ptr %vtable.i, align 8
  call void %1(ptr noundef nonnull align 8 dereferenceable(8) %0, ptr noundef nonnull %app_data.i) #17
  br label %_ZN4node4quic13SessionTicket7AppData7CollectEP6ssl_st.exit

_ZN4node4quic13SessionTicket7AppData7CollectEP6ssl_st.exit: ; preds = %entry, %land.lhs.true.i.i, %if.then.i
  call void @llvm.lifetime.end.p0(i64 16, ptr nonnull %app_data.i)
  ret i32 1
}